target datalayout = "e-m:e-p270:32:32-p271:32:32-p272:64:64-i64:64-i128:128-f80:128-n8:16:32:64-S128"
target triple = "x86_64-pc-linux-gnu"

%struct._generic_N_Vector = type { ptr, ptr, ptr }
%struct._N_VectorContent_Serial = type { i64, i32, ptr }

; Function Attrs: nounwind uwtable
define internal void @VLin1VectorArray_Serial(i32 noundef %0, double noundef %1, ptr noundef %2, ptr noundef %3, ptr noundef %4) #0 {
  %6 = alloca i32, align 4
  %7 = alloca double, align 8
  %8 = alloca ptr, align 8
  %9 = alloca ptr, align 8
  %10 = alloca ptr, align 8
  %11 = alloca i32, align 4
  %12 = alloca i64, align 8
  %13 = alloca i64, align 8
  %14 = alloca ptr, align 8
  %15 = alloca ptr, align 8
  %16 = alloca ptr, align 8
  store i32 %0, ptr %6, align 4, !tbaa !74
  store double %1, ptr %7, align 8, !tbaa !72
  store ptr %2, ptr %8, align 8, !tbaa !75
  store ptr %3, ptr %9, align 8, !tbaa !75
  store ptr %4, ptr %10, align 8, !tbaa !75
  call void @llvm.lifetime.start.p0(i64 4, ptr %11) #6
  call void @llvm.lifetime.start.p0(i64 8, ptr %12) #6
  call void @llvm.lifetime.start.p0(i64 8, ptr %13) #6
  call void @llvm.lifetime.start.p0(i64 8, ptr %14) #6
  store ptr null, ptr %14, align 8, !tbaa !69
  call void @llvm.lifetime.start.p0(i64 8, ptr %15) #6
  store ptr null, ptr %15, align 8, !tbaa !69
  call void @llvm.lifetime.start.p0(i64 8, ptr %16) #6
  store ptr null, ptr %16, align 8, !tbaa !69
  %17 = load ptr, ptr %8, align 8, !tbaa !75
  %18 = getelementptr inbounds ptr, ptr %17, i64 0
  %19 = load ptr, ptr %18, align 8, !tbaa !10
  %20 = getelementptr inbounds nuw %struct._generic_N_Vector, ptr %19, i32 0, i32 0
  %21 = load ptr, ptr %20, align 8, !tbaa !61
  %22 = getelementptr inbounds nuw %struct._N_VectorContent_Serial, ptr %21, i32 0, i32 0
  %23 = load i64, ptr %22, align 8, !tbaa !62
  store i64 %23, ptr %13, align 8, !tbaa !3
  store i32 0, ptr %11, align 4, !tbaa !74
  br label %24

24:                                               ; preds = %78, %5
  %25 = load i32, ptr %11, align 4, !tbaa !74
  %26 = load i32, ptr %6, align 4, !tbaa !74
  %27 = icmp slt i32 %25, %26
  br i1 %27, label %28, label %81

28:                                               ; preds = %24
  %29 = load ptr, ptr %8, align 8, !tbaa !75
  %30 = load i32, ptr %11, align 4, !tbaa !74
  %31 = sext i32 %30 to i64
  %32 = getelementptr inbounds ptr, ptr %29, i64 %31
  %33 = load ptr, ptr %32, align 8, !tbaa !10
  %34 = getelementptr inbounds nuw %struct._generic_N_Vector, ptr %33, i32 0, i32 0
  %35 = load ptr, ptr %34, align 8, !tbaa !61
  %36 = getelementptr inbounds nuw %struct._N_VectorContent_Serial, ptr %35, i32 0, i32 2
  %37 = load ptr, ptr %36, align 8, !tbaa !67
  store ptr %37, ptr %14, align 8, !tbaa !69
  %38 = load ptr, ptr %9, align 8, !tbaa !75
  %39 = load i32, ptr %11, align 4, !tbaa !74
  %40 = sext i32 %39 to i64
  %41 = getelementptr inbounds ptr, ptr %38, i64 %40
  %42 = load ptr, ptr %41, align 8, !tbaa !10
  %43 = getelementptr inbounds nuw %struct._generic_N_Vector, ptr %42, i32 0, i32 0
  %44 = load ptr, ptr %43, align 8, !tbaa !61
  %45 = getelementptr inbounds nuw %struct._N_VectorContent_Serial, ptr %44, i32 0, i32 2
  %46 = load ptr, ptr %45, align 8, !tbaa !67
  store ptr %46, ptr %15, align 8, !tbaa !69
  %47 = load ptr, ptr %10, align 8, !tbaa !75
  %48 = load i32, ptr %11, align 4, !tbaa !74
  %49 = sext i32 %48 to i64
  %50 = getelementptr inbounds ptr, ptr %47, i64 %49
  %51 = load ptr, ptr %50, align 8, !tbaa !10
  %52 = getelementptr inbounds nuw %struct._generic_N_Vector, ptr %51, i32 0, i32 0
  %53 = load ptr, ptr %52, align 8, !tbaa !61
  %54 = getelementptr inbounds nuw %struct._N_VectorContent_Serial, ptr %53, i32 0, i32 2
  %55 = load ptr, ptr %54, align 8, !tbaa !67
  store ptr %55, ptr %16, align 8, !tbaa !69
  store i64 0, ptr %12, align 8, !tbaa !3
  br label %56

56:                                               ; preds = %74, %28
  %57 = load i64, ptr %12, align 8, !tbaa !3
  %58 = load i64, ptr %13, align 8, !tbaa !3
  %59 = icmp slt i64 %57, %58
  br i1 %59, label %60, label %77

60:                                               ; preds = %56
  %61 = load double, ptr %7, align 8, !tbaa !72
  %62 = load ptr, ptr %14, align 8, !tbaa !69
  %63 = load i64, ptr %12, align 8, !tbaa !3
  %64 = getelementptr inbounds double, ptr %62, i64 %63
  %65 = load double, ptr %64, align 8, !tbaa !72
  %66 = load ptr, ptr %15, align 8, !tbaa !69
  %67 = load i64, ptr %12, align 8, !tbaa !3
  %68 = getelementptr inbounds double, ptr %66, i64 %67
  %69 = load double, ptr %68, align 8, !tbaa !72
  %70 = call double @llvm.fmuladd.f64(double %61, double %65, double %69)
  %71 = load ptr, ptr %16, align 8, !tbaa !69
  %72 = load i64, ptr %12, align 8, !tbaa !3
  %73 = getelementptr inbounds double, ptr %71, i64 %72
  store double %70, ptr %73, align 8, !tbaa !72
  br label %74

74:                                               ; preds = %60
  %75 = load i64, ptr %12, align 8, !tbaa !3
  %76 = add nsw i64 %75, 1
  store i64 %76, ptr %12, align 8, !tbaa !3
  br label %56

77:                                               ; preds = %56
  br label %78

78:                                               ; preds = %77
  %79 = load i32, ptr %11, align 4, !tbaa !74
  %80 = add nsw i32 %79, 1
  store i32 %80, ptr %11, align 4, !tbaa !74
  br label %24

81:                                               ; preds = %24
  call void @llvm.lifetime.end.p0(i64 8, ptr %16) #6
  call void @llvm.lifetime.end.p0(i64 8, ptr %15) #6
  call void @llvm.lifetime.end.p0(i64 8, ptr %14) #6
  call void @llvm.lifetime.end.p0(i64 8, ptr %13) #6
  call void @llvm.lifetime.end.p0(i64 8, ptr %12) #6
  call void @llvm.lifetime.end.p0(i64 4, ptr %11) #6
  ret void
}